; ModuleID = 'bench/boost/original/string_view_base.ll'
source_filename = "bench/boost/original/string_view_base.ll"
target datalayout = "e-m:e-p270:32:32-p271:32:32-p272:64:64-i64:64-i128:128-f80:128-n8:16:32:64-S128"
target triple = "x86_64-pc-linux-gnu"

$_ZN5boost4corelsIcEERSt13basic_ostreamIT_St11char_traitsIS3_EES7_NS0_17basic_string_viewIS3_EE = comdat any

@.str = private unnamed_addr constant [1 x i8] zeroinitializer, align 1

; Function Attrs: mustprogress uwtable
define noundef nonnull align 8 dereferenceable(8) ptr @_ZN5boost4urls7grammarlsERSoRKNS1_16string_view_baseE(ptr noundef nonnull align 8 dereferenceable(8) %0, ptr nocapture noundef nonnull readonly align 8 dereferenceable(16) %1) local_unnamed_addr #0 {
  %.sroa.0.0.copyload.i.i = load ptr, ptr %1, align 8, !tbaa !3
  %.sroa.2.0..sroa_idx.i.i = getelementptr inbounds i8, ptr %1, i64 8
  %.sroa.2.0.copyload.i.i = load i64, ptr %.sroa.2.0..sroa_idx.i.i, align 8, !tbaa !7
  %3 = tail call noundef nonnull align 8 dereferenceable(8) ptr @_ZN5boost4corelsIcEERSt13basic_ostreamIT_St11char_traitsIS3_EES7_NS0_17basic_string_viewIS3_EE(ptr noundef nonnull align 8 dereferenceable(8) %0, ptr %.sroa.0.0.copyload.i.i, i64 %.sroa.2.0.copyload.i.i)
  ret ptr %3
}

; Function Attrs: mustprogress uwtable
define linkonce_odr hidden noundef nonnull align 8 dereferenceable(8) ptr @_ZN5boost4corelsIcEERSt13basic_ostreamIT_St11char_traitsIS3_EES7_NS0_17basic_string_viewIS3_EE(ptr noundef nonnull align 8 dereferenceable(8) %0, ptr %1, i64 %2) local_unnamed_addr #0 comdat {
  %4 = load ptr, ptr %0, align 8, !tbaa !9
  %5 = getelementptr i8, ptr %4, i64 -24
  %6 = load i64, ptr %5, align 8
  %7 = getelementptr inbounds i8, ptr %0, i64 %6
  %8 = getelementptr inbounds nuw i8, ptr %7, i64 16
  %9 = load i64, ptr %8, align 8, !tbaa !11
  %.not = icmp slt i64 %2, %9
  br i1 %.not, label %12, label %10

10:                                               ; preds = %3
  %11 = tail call noundef nonnull align 8 dereferenceable(8) ptr @_ZNSo5writeEPKcl(ptr noundef nonnull align 8 dereferenceable(8) %0, ptr noundef %1, i64 noundef %2)
  br label %30

12:                                               ; preds = %3
  %13 = getelementptr inbounds nuw i8, ptr %7, i64 24
  %14 = load i32, ptr %13, align 8, !tbaa !18
  %15 = and i32 %14, 176
  %16 = icmp eq i32 %15, 32
  br i1 %16, label %17, label %26

17:                                               ; preds = %12
  %18 = tail call noundef nonnull align 8 dereferenceable(8) ptr @_ZNSo5writeEPKcl(ptr noundef nonnull align 8 dereferenceable(8) %0, ptr noundef %1, i64 noundef %2)
  %19 = load ptr, ptr %0, align 8, !tbaa !9
  %20 = getelementptr i8, ptr %19, i64 -24
  %21 = load i64, ptr %20, align 8
  %22 = getelementptr inbounds i8, ptr %0, i64 %21
  %23 = sub nsw i64 %9, %2
  %24 = getelementptr inbounds nuw i8, ptr %22, i64 16
  store i64 %23, ptr %24, align 8, !tbaa !11
  %25 = tail call noundef nonnull align 8 dereferenceable(8) ptr @_ZSt16__ostream_insertIcSt11char_traitsIcEERSt13basic_ostreamIT_T0_ES6_PKS3_l(ptr noundef nonnull align 8 dereferenceable(8) %0, ptr noundef nonnull @.str, i64 noundef 0)
  br label %30

26:                                               ; preds = %12
  %27 = sub nsw i64 %9, %2
  store i64 %27, ptr %8, align 8, !tbaa !11
  %28 = tail call noundef nonnull align 8 dereferenceable(8) ptr @_ZSt16__ostream_insertIcSt11char_traitsIcEERSt13basic_ostreamIT_T0_ES6_PKS3_l(ptr noundef nonnull align 8 dereferenceable(8) %0, ptr noundef nonnull @.str, i64 noundef 0)
  %29 = tail call noundef nonnull align 8 dereferenceable(8) ptr @_ZNSo5writeEPKcl(ptr noundef nonnull align 8 dereferenceable(8) %0, ptr noundef %1, i64 noundef %2)
  br label %30

30:                                               ; preds = %17, %26, %10
  %31 = load ptr, ptr %0, align 8, !tbaa !9
  %32 = getelementptr i8, ptr %31, i64 -24
  %33 = load i64, ptr %32, align 8
  %34 = getelementptr inbounds i8, ptr %0, i64 %33
  %35 = getelementptr inbounds nuw i8, ptr %34, i64 16
  store i64 0, ptr %35, align 8, !tbaa !11
  ret ptr %0
}

declare noundef nonnull align 8 dereferenceable(8) ptr @_ZNSo5writeEPKcl(ptr noundef nonnull align 8 dereferenceable(8), ptr noundef, i64 noundef) local_unnamed_addr #1

declare noundef nonnull align 8 dereferenceable(8) ptr @_ZSt16__ostream_insertIcSt11char_traitsIcEERSt13basic_ostreamIT_T0_ES6_PKS3_l(ptr noundef nonnull align 8 dereferenceable(8), ptr noundef, i64 noundef) local_unnamed_addr #1


!llvm.module.flags = !{!0, !1, !2}

!0 = !{i32 1, !"wchar_size", i32 4}
!1 = !{i32 8, !"PIC Level", i32 2}
!2 = !{i32 7, !"uwtable", i32 2}
!3 = !{!4, !4, i64 0}
!4 = !{!"any pointer", !5, i64 0}
!5 = !{!"omnipotent char", !6, i64 0}
!6 = !{!"Simple C++ TBAA"}
!7 = !{!8, !8, i64 0}
!8 = !{!"long", !5, i64 0}
!9 = !{!10, !10, i64 0}
!10 = !{!"vtable pointer", !6, i64 0}
!11 = !{!12, !8, i64 16}
!12 = !{!"_ZTSSt8ios_base", !8, i64 8, !8, i64 16, !13, i64 24, !14, i64 28, !14, i64 32, !4, i64 40, !15, i64 48, !5, i64 64, !16, i64 192, !4, i64 200, !17, i64 208}
!13 = !{!"_ZTSSt13_Ios_Fmtflags", !5, i64 0}
!14 = !{!"_ZTSSt12_Ios_Iostate", !5, i64 0}
!15 = !{!"_ZTSNSt8ios_base6_WordsE", !4, i64 0, !8, i64 8}
!16 = !{!"int", !5, i64 0}
!17 = !{!"_ZTSSt6locale", !4, i64 0}
!18 = !{!12, !13, i64 24}
